target datalayout = "e-m:e-p270:32:32-p271:32:32-p272:64:64-i64:64-i128:128-f80:128-n8:16:32:64-S128"
target triple = "x86_64-pc-linux-gnu"

%struct.evhttp_uri = type { i32, ptr, ptr, ptr, i32, ptr, ptr, ptr, ptr }

@.str.46 = private unnamed_addr constant [13 x i8] c"%s: strdup()\00", align 1
@__func__.evhttp_uri_set_unixsocket = private unnamed_addr constant [26 x i8] c"evhttp_uri_set_unixsocket\00", align 1

; Function Attrs: nounwind uwtable
define i32 @evhttp_uri_set_unixsocket(ptr noundef %0, ptr noundef %1) #0 {
  %3 = alloca i32, align 4
  %4 = alloca ptr, align 8
  %5 = alloca ptr, align 8
  store ptr %0, ptr %4, align 8
  store ptr %1, ptr %5, align 8
  br label %6

6:                                                ; preds = %2
  %7 = load ptr, ptr %4, align 8
  %8 = getelementptr inbounds nuw %struct.evhttp_uri, ptr %7, i32 0, i32 5
  %9 = load ptr, ptr %8, align 8
  %10 = icmp ne ptr %9, null
  br i1 %10, label %11, label %15

11:                                               ; preds = %6
  %12 = load ptr, ptr %4, align 8
  %13 = getelementptr inbounds nuw %struct.evhttp_uri, ptr %12, i32 0, i32 5
  %14 = load ptr, ptr %13, align 8
  call void @event_mm_free_(ptr noundef %14)
  br label %15

15:                                               ; preds = %11, %6
  %16 = load ptr, ptr %5, align 8
  %17 = icmp ne ptr %16, null
  br i1 %17, label %18, label %26

18:                                               ; preds = %15
  %19 = load ptr, ptr %5, align 8
  %20 = call ptr @event_mm_strdup_(ptr noundef %19)
  %21 = load ptr, ptr %4, align 8
  %22 = getelementptr inbounds nuw %struct.evhttp_uri, ptr %21, i32 0, i32 5
  store ptr %20, ptr %22, align 8
  %23 = icmp eq ptr %20, null
  br i1 %23, label %24, label %25

24:                                               ; preds = %18
  call void (ptr, ...) @event_warn(ptr noundef @.str.46, ptr noundef @__func__.evhttp_uri_set_unixsocket)
  store i32 -1, ptr %3, align 4
  br label %31

25:                                               ; preds = %18
  br label %29

26:                                               ; preds = %15
  %27 = load ptr, ptr %4, align 8
  %28 = getelementptr inbounds nuw %struct.evhttp_uri, ptr %27, i32 0, i32 5
  store ptr null, ptr %28, align 8
  br label %29

29:                                               ; preds = %26, %25
  br label %30

30:                                               ; preds = %29
  store i32 0, ptr %3, align 4
  br label %31

31:                                               ; preds = %30, %24
  %32 = load i32, ptr %3, align 4
  ret i32 %32
}