; Function Attrs: nounwind uwtable
define range(i32 -1, 1) i32 @evhttp_uri_set_unixsocket(ptr noundef captures(none) %0, ptr noundef %1) local_unnamed_addr #0 {
  %3 = getelementptr inbounds nuw i8, ptr %0, i64 40
  %4 = load ptr, ptr %3, align 8
  %.not = icmp eq ptr %4, null
  br i1 %.not, label %6, label %5

5:                                                ; preds = %2
  tail call void @event_mm_free_(ptr noundef nonnull %4) #18
  br label %6

6:                                                ; preds = %5, %2
  %.not8 = icmp eq ptr %1, null
  br i1 %.not8, label %11, label %7

7:                                                ; preds = %6
  %8 = tail call ptr @event_mm_strdup_(ptr noundef nonnull %1) #18
  store ptr %8, ptr %3, align 8
  %9 = icmp eq ptr %8, null
  br i1 %9, label %10, label %12

10:                                               ; preds = %7
  tail call void (ptr, ...) @event_warn(ptr noundef nonnull @.str.46, ptr noundef nonnull @__func__.evhttp_uri_set_unixsocket) #18
  br label %12

11:                                               ; preds = %6
  store ptr null, ptr %3, align 8
  br label %12

12:                                               ; preds = %7, %11, %10
  %.0 = phi i32 [ -1, %10 ], [ 0, %11 ], [ 0, %7 ]
  ret i32 %.0
}